target datalayout = "e-m:e-p270:32:32-p271:32:32-p272:64:64-i64:64-i128:128-f80:128-n8:16:32:64-S128"
target triple = "x86_64-pc-linux-gnu"

%"class.icu_77::StringTrieBuilder" = type { %"class.icu_77::UObject", ptr }
%"class.icu_77::UObject" = type { ptr }
%union.UElement = type { ptr }
%"class.icu_77::StringTrieBuilder::FinalValueNode" = type <{ %"class.icu_77::StringTrieBuilder::Node", i32, [4 x i8] }>
%"class.icu_77::StringTrieBuilder::Node" = type { %"class.icu_77::UObject", i32, i32 }
%struct.UHashElement = type { i32, %union.UElement, %union.UElement }

@_ZTVN6icu_777UObjectE = available_externally unnamed_addr constant { [5 x ptr] } { [5 x ptr] [ptr null, ptr @_ZTIN6icu_777UObjectE, ptr @_ZN6icu_777UObjectD1Ev, ptr @_ZN6icu_777UObjectD0Ev, ptr @_ZNK6icu_777UObject17getDynamicClassIDEv] }, align 8

; Function Attrs: inlinehint mustprogress nounwind uwtable
define linkonce_odr void @_ZN6icu_777UObjectC2Ev(ptr noundef nonnull align 8 dereferenceable(8) %0) unnamed_addr #1 comdat align 2 {
  %2 = alloca ptr, align 8
  store ptr %0, ptr %2, align 8, !tbaa !14
  %3 = load ptr, ptr %2, align 8
  store ptr getelementptr inbounds inrange(-16, 24) ({ [5 x ptr] }, ptr @_ZTVN6icu_777UObjectE, i32 0, i32 0, i32 2), ptr %3, align 8, !tbaa !8
  ret void
}

; Function Attrs: mustprogress nounwind uwtable
define linkonce_odr void @_ZN6icu_7717StringTrieBuilder4NodeC2Ei(ptr noundef nonnull align 8 dereferenceable(16) %0, i32 noundef %1) unnamed_addr #0 comdat align 2 {
  %3 = alloca ptr, align 8
  %4 = alloca i32, align 4
  store ptr %0, ptr %3, align 8, !tbaa !24
  store i32 %1, ptr %4, align 4, !tbaa !16
  %5 = load ptr, ptr %3, align 8
  call void @_ZN6icu_777UObjectC2Ev(ptr noundef nonnull align 8 dereferenceable(8) %5) #9
  store ptr getelementptr inbounds inrange(-16, 48) ({ [8 x ptr] }, ptr @_ZTVN6icu_7717StringTrieBuilder4NodeE, i32 0, i32 0, i32 2), ptr %5, align 8, !tbaa !8
  %6 = getelementptr inbounds nuw %"class.icu_77::StringTrieBuilder::Node", ptr %5, i32 0, i32 1
  %7 = load i32, ptr %4, align 4, !tbaa !16
  store i32 %7, ptr %6, align 8, !tbaa !54
  %8 = getelementptr inbounds nuw %"class.icu_77::StringTrieBuilder::Node", ptr %5, i32 0, i32 2
  store i32 0, ptr %8, align 4, !tbaa !77
  ret void
}

; Function Attrs: mustprogress nounwind uwtable
define linkonce_odr void @_ZN6icu_7717StringTrieBuilder14FinalValueNodeC2Ei(ptr noundef nonnull align 8 dereferenceable(20) %0, i32 noundef %1) unnamed_addr #0 comdat align 2 {
  %3 = alloca ptr, align 8
  %4 = alloca i32, align 4
  store ptr %0, ptr %3, align 8, !tbaa !68
  store i32 %1, ptr %4, align 4, !tbaa !16
  %5 = load ptr, ptr %3, align 8
  %6 = load i32, ptr %4, align 4, !tbaa !16
  %7 = add i32 41383797, %6
  call void @_ZN6icu_7717StringTrieBuilder4NodeC2Ei(ptr noundef nonnull align 8 dereferenceable(16) %5, i32 noundef %7)
  store ptr getelementptr inbounds inrange(-16, 48) ({ [8 x ptr] }, ptr @_ZTVN6icu_7717StringTrieBuilder14FinalValueNodeE, i32 0, i32 0, i32 2), ptr %5, align 8, !tbaa !8
  %8 = getelementptr inbounds nuw %"class.icu_77::StringTrieBuilder::FinalValueNode", ptr %5, i32 0, i32 1
  %9 = load i32, ptr %4, align 4, !tbaa !16
  store i32 %9, ptr %8, align 8, !tbaa !70
  ret void
}

; Function Attrs: inlinehint mustprogress nounwind uwtable
define internal noundef signext i8 @_ZL9U_FAILURE10UErrorCode(i32 noundef %0) #1 {
  %2 = alloca i32, align 4
  store i32 %0, ptr %2, align 4, !tbaa !19
  %3 = load i32, ptr %2, align 4, !tbaa !19
  %4 = icmp sgt i32 %3, 0
  %5 = zext i1 %4 to i8
  ret i8 %5
}

; Function Attrs: mustprogress uwtable
define noundef ptr @_ZN6icu_7717StringTrieBuilder18registerFinalValueEiR10UErrorCode(ptr noundef nonnull align 8 dereferenceable(16) %0, i32 noundef %1, ptr noundef nonnull align 4 dereferenceable(4) %2) #2 align 2 personality ptr @__gxx_personality_v0 {
  %4 = alloca ptr, align 8
  %5 = alloca ptr, align 8
  %6 = alloca i32, align 4
  %7 = alloca ptr, align 8
  %8 = alloca %"class.icu_77::StringTrieBuilder::FinalValueNode", align 8
  %9 = alloca ptr, align 8
  %10 = alloca ptr, align 8
  %11 = alloca i32, align 4
  %12 = alloca i32, align 4
  %13 = alloca ptr, align 8
  %14 = alloca ptr, align 8
  %15 = alloca i1, align 1
  store ptr %0, ptr %5, align 8, !tbaa !3
  store i32 %1, ptr %6, align 4, !tbaa !16
  store ptr %2, ptr %7, align 8, !tbaa !18
  %16 = load ptr, ptr %5, align 8
  %17 = load ptr, ptr %7, align 8, !tbaa !18
  %18 = load i32, ptr %17, align 4, !tbaa !19
  %19 = call noundef signext i8 @_ZL9U_FAILURE10UErrorCode(i32 noundef %18)
  %20 = icmp ne i8 %19, 0
  br i1 %20, label %21, label %22

21:                                               ; preds = %3
  store ptr null, ptr %4, align 8
  br label %88

22:                                               ; preds = %3
  call void @llvm.lifetime.start.p0(i64 24, ptr %8) #9
  %23 = load i32, ptr %6, align 4, !tbaa !16
  call void @_ZN6icu_7717StringTrieBuilder14FinalValueNodeC2Ei(ptr noundef nonnull align 8 dereferenceable(20) %8, i32 noundef %23)
  call void @llvm.lifetime.start.p0(i64 8, ptr %9) #9
  %24 = getelementptr inbounds nuw %"class.icu_77::StringTrieBuilder", ptr %16, i32 0, i32 1
  %25 = load ptr, ptr %24, align 8, !tbaa !10
  %26 = invoke ptr @uhash_find_77(ptr noundef %25, ptr noundef %8)
          to label %27 unwind label %34

27:                                               ; preds = %22
  store ptr %26, ptr %9, align 8, !tbaa !36
  %28 = load ptr, ptr %9, align 8, !tbaa !36
  %29 = icmp ne ptr %28, null
  br i1 %29, label %30, label %38

30:                                               ; preds = %27
  %31 = load ptr, ptr %9, align 8, !tbaa !36
  %32 = getelementptr inbounds nuw %struct.UHashElement, ptr %31, i32 0, i32 2
  %33 = load ptr, ptr %32, align 8, !tbaa !21
  store ptr %33, ptr %4, align 8
  store i32 1, ptr %12, align 4
  br label %86

34:                                               ; preds = %22
  %35 = landingpad { ptr, i32 }
          cleanup
  %36 = extractvalue { ptr, i32 } %35, 0
  store ptr %36, ptr %10, align 8
  %37 = extractvalue { ptr, i32 } %35, 1
  store i32 %37, ptr %11, align 4
  br label %87

38:                                               ; preds = %27
  call void @llvm.lifetime.start.p0(i64 8, ptr %13) #9
  %39 = call noundef ptr @_ZN6icu_777UMemorynwEm(i64 noundef 24) #9
  %40 = icmp eq ptr %39, null
  store i1 false, ptr %15, align 1
  br i1 %40, label %44, label %41

41:                                               ; preds = %38
  store ptr %39, ptr %14, align 8
  store i1 true, ptr %15, align 1
  %42 = load i32, ptr %6, align 4, !tbaa !16
  invoke void @_ZN6icu_7717StringTrieBuilder14FinalValueNodeC2Ei(ptr noundef nonnull align 8 dereferenceable(20) %39, i32 noundef %42)
          to label %43 unwind label %50

43:                                               ; preds = %41
  br label %44

44:                                               ; preds = %43, %38
  %45 = phi ptr [ %39, %43 ], [ null, %38 ]
  store ptr %45, ptr %13, align 8, !tbaa !24
  %46 = load ptr, ptr %13, align 8, !tbaa !24
  %47 = icmp eq ptr %46, null
  br i1 %47, label %48, label %58

48:                                               ; preds = %44
  %49 = load ptr, ptr %7, align 8, !tbaa !18
  store i32 7, ptr %49, align 4, !tbaa !19
  store ptr null, ptr %4, align 8
  store i32 1, ptr %12, align 4
  br label %84

50:                                               ; preds = %41
  %51 = landingpad { ptr, i32 }
          cleanup
  %52 = extractvalue { ptr, i32 } %51, 0
  store ptr %52, ptr %10, align 8
  %53 = extractvalue { ptr, i32 } %51, 1
  store i32 %53, ptr %11, align 4
  %54 = load i1, ptr %15, align 1
  br i1 %54, label %55, label %57

55:                                               ; preds = %50
  %56 = load ptr, ptr %14, align 8
  call void @_ZN6icu_777UMemorydlEPv(ptr noundef %56) #9
  br label %57

57:                                               ; preds = %55, %50
  br label %85

58:                                               ; preds = %44
  %59 = getelementptr inbounds nuw %"class.icu_77::StringTrieBuilder", ptr %16, i32 0, i32 1
  %60 = load ptr, ptr %59, align 8, !tbaa !10
  %61 = load ptr, ptr %13, align 8, !tbaa !24
  %62 = load ptr, ptr %7, align 8, !tbaa !18
  %63 = invoke i32 @uhash_puti_77(ptr noundef %60, ptr noundef %61, i32 noundef 1, ptr noundef %62)
          to label %64 unwind label %78

64:                                               ; preds = %58
  %65 = load ptr, ptr %7, align 8, !tbaa !18
  %66 = load i32, ptr %65, align 4, !tbaa !19
  %67 = invoke noundef signext i8 @_ZL9U_FAILURE10UErrorCode(i32 noundef %66)
          to label %68 unwind label %78

68:                                               ; preds = %64
  %69 = icmp ne i8 %67, 0
  br i1 %69, label %70, label %82

70:                                               ; preds = %68
  %71 = load ptr, ptr %13, align 8, !tbaa !24
  %72 = icmp eq ptr %71, null
  br i1 %72, label %77, label %73

73:                                               ; preds = %70
  %74 = load ptr, ptr %71, align 8, !tbaa !8
  %75 = getelementptr inbounds ptr, ptr %74, i64 1
  %76 = load ptr, ptr %75, align 8
  call void %76(ptr noundef nonnull align 8 dereferenceable(16) %71) #9
  br label %77

77:                                               ; preds = %73, %70
  store ptr null, ptr %4, align 8
  store i32 1, ptr %12, align 4
  br label %84

78:                                               ; preds = %64, %58
  %79 = landingpad { ptr, i32 }
          cleanup
  %80 = extractvalue { ptr, i32 } %79, 0
  store ptr %80, ptr %10, align 8
  %81 = extractvalue { ptr, i32 } %79, 1
  store i32 %81, ptr %11, align 4
  br label %85

82:                                               ; preds = %68
  %83 = load ptr, ptr %13, align 8, !tbaa !24
  store ptr %83, ptr %4, align 8
  store i32 1, ptr %12, align 4
  br label %84

84:                                               ; preds = %82, %77, %48
  call void @llvm.lifetime.end.p0(i64 8, ptr %13) #9
  br label %86

85:                                               ; preds = %78, %57
  call void @llvm.lifetime.end.p0(i64 8, ptr %13) #9
  br label %87

86:                                               ; preds = %84, %30
  call void @llvm.lifetime.end.p0(i64 8, ptr %9) #9
  call void @_ZN6icu_777UObjectD2Ev(ptr noundef nonnull align 8 dereferenceable(20) %8) #9
  call void @llvm.lifetime.end.p0(i64 24, ptr %8) #9
  br label %88

87:                                               ; preds = %85, %34
  call void @llvm.lifetime.end.p0(i64 8, ptr %9) #9
  call void @_ZN6icu_777UObjectD2Ev(ptr noundef nonnull align 8 dereferenceable(20) %8) #9
  call void @llvm.lifetime.end.p0(i64 24, ptr %8) #9
  br label %90

88:                                               ; preds = %86, %21
  %89 = load ptr, ptr %4, align 8
  ret ptr %89

90:                                               ; preds = %87
  %91 = load ptr, ptr %10, align 8
  %92 = load i32, ptr %11, align 4
  %93 = insertvalue { ptr, i32 } poison, ptr %91, 0
  %94 = insertvalue { ptr, i32 } %93, i32 %92, 1
  resume { ptr, i32 } %94
}