; Function Attrs: mustprogress uwtable
define noundef ptr @_ZN6icu_7717StringTrieBuilder18registerFinalValueEiR10UErrorCode(ptr noundef nonnull readonly align 8 captures(none) dereferenceable(16) %0, i32 noundef %1, ptr noundef nonnull align 4 dereferenceable(4) %2) local_unnamed_addr #2 align 2 personality ptr @__gxx_personality_v0 {
  %4 = alloca %"class.icu_77::StringTrieBuilder::FinalValueNode", align 8
  %5 = load i32, ptr %2, align 4, !tbaa !12
  %6 = icmp slt i32 %5, 1
  br i1 %6, label %7, label %42

7:                                                ; preds = %3
  call void @llvm.lifetime.start.p0(i64 24, ptr nonnull %4) #16
  %8 = add i32 %1, 41383797
  %9 = getelementptr inbounds nuw i8, ptr %4, i64 8
  store i32 %8, ptr %9, align 8, !tbaa !14
  %10 = getelementptr inbounds nuw i8, ptr %4, i64 12
  store i32 0, ptr %10, align 4, !tbaa !21
  store ptr getelementptr inbounds nuw inrange(-16, 48) (i8, ptr @_ZTVN6icu_7717StringTrieBuilder14FinalValueNodeE, i64 16), ptr %4, align 8, !tbaa !3
  %11 = getelementptr inbounds nuw i8, ptr %4, i64 16
  store i32 %1, ptr %11, align 8, !tbaa !39
  %12 = getelementptr inbounds nuw i8, ptr %0, i64 8
  %13 = load ptr, ptr %12, align 8, !tbaa !6
  %14 = invoke ptr @uhash_find_77(ptr noundef %13, ptr noundef nonnull %4)
          to label %15 unwind label %19

15:                                               ; preds = %7
  %.not20 = icmp eq ptr %14, null
  br i1 %.not20, label %21, label %16

16:                                               ; preds = %15
  %17 = getelementptr inbounds nuw i8, ptr %14, i64 16
  %18 = load ptr, ptr %17, align 8, !tbaa !19
  br label %40

19:                                               ; preds = %7
  %20 = landingpad { ptr, i32 }
          cleanup
  br label %41

21:                                               ; preds = %15
  %22 = call noundef ptr @_ZN6icu_777UMemorynwEm(i64 noundef 24) #16
  %23 = icmp eq ptr %22, null
  br i1 %23, label %24, label %25

24:                                               ; preds = %21
  store i32 7, ptr %2, align 4, !tbaa !12
  br label %40

25:                                               ; preds = %21
  %26 = getelementptr inbounds nuw i8, ptr %22, i64 8
  store i32 %8, ptr %26, align 8, !tbaa !14
  %27 = getelementptr inbounds nuw i8, ptr %22, i64 12
  store i32 0, ptr %27, align 4, !tbaa !21
  store ptr getelementptr inbounds nuw inrange(-16, 48) (i8, ptr @_ZTVN6icu_7717StringTrieBuilder14FinalValueNodeE, i64 16), ptr %22, align 8, !tbaa !3
  %28 = getelementptr inbounds nuw i8, ptr %22, i64 16
  store i32 %1, ptr %28, align 8, !tbaa !39
  %29 = load ptr, ptr %12, align 8, !tbaa !6
  %30 = invoke i32 @uhash_puti_77(ptr noundef %29, ptr noundef nonnull %22, i32 noundef 1, ptr noundef nonnull %2)
          to label %31 unwind label %38

31:                                               ; preds = %25
  %32 = load i32, ptr %2, align 4, !tbaa !12
  %33 = icmp slt i32 %32, 1
  br i1 %33, label %40, label %34

34:                                               ; preds = %31
  %35 = load ptr, ptr %22, align 8, !tbaa !3
  %36 = getelementptr inbounds nuw i8, ptr %35, i64 8
  %37 = load ptr, ptr %36, align 8
  call void %37(ptr noundef nonnull align 8 dereferenceable(16) %22) #16
  br label %40

38:                                               ; preds = %25
  %39 = landingpad { ptr, i32 }
          cleanup
  br label %41

40:                                               ; preds = %24, %34, %31, %16
  %.1 = phi ptr [ %18, %16 ], [ null, %24 ], [ null, %34 ], [ %22, %31 ]
  call void @_ZN6icu_777UObjectD2Ev(ptr noundef nonnull align 8 dereferenceable(20) %4) #16
  call void @llvm.lifetime.end.p0(i64 24, ptr nonnull %4) #16
  br label %42

41:                                               ; preds = %38, %19
  %.pn = phi { ptr, i32 } [ %39, %38 ], [ %20, %19 ]
  call void @_ZN6icu_777UObjectD2Ev(ptr noundef nonnull align 8 dereferenceable(20) %4) #16
  call void @llvm.lifetime.end.p0(i64 24, ptr nonnull %4) #16
  resume { ptr, i32 } %.pn

42:                                               ; preds = %3, %40
  %.0 = phi ptr [ %.1, %40 ], [ null, %3 ]
  ret ptr %.0
}